; Function Attrs: mustprogress uwtable
define void @_ZN6icu_756number15NumberFormatter10withLocaleERKNS_6LocaleE(ptr noalias sret(%"class.icu_75::number::LocalizedNumberFormatter") align 8 %agg.result, ptr noundef nonnull align 8 dereferenceable(217) %locale) local_unnamed_addr #1 align 2 personality ptr @__gxx_personality_v0 {
entry:
  %ref.tmp = alloca %"class.icu_75::number::UnlocalizedNumberFormatter", align 8
  call void @_ZN6icu_756number4impl10MacroPropsC2Ev(ptr noundef nonnull align 8 dereferenceable(472) %ref.tmp)
  invoke void @_ZN6icu_756number24LocalizedNumberFormatterC1EONS0_4impl10MacroPropsERKNS_6LocaleE(ptr noundef nonnull align 8 dereferenceable(496) %agg.result, ptr noundef nonnull align 8 dereferenceable(472) %ref.tmp, ptr noundef nonnull align 8 dereferenceable(217) %locale)
          to label %invoke.cont unwind label %lpad

invoke.cont:                                      ; preds = %entry
  %locale.i.i.i = getelementptr inbounds i8, ptr %ref.tmp, i64 248
  call void @_ZN6icu_756LocaleD1Ev(ptr noundef nonnull align 8 dereferenceable(217) %locale.i.i.i) #14
  %unitDisplayCase.i.i.i = getelementptr inbounds i8, ptr %ref.tmp, i64 208
  call void @_ZN6icu_756number4impl10StringPropD1Ev(ptr noundef nonnull align 8 dereferenceable(16) %unitDisplayCase.i.i.i) #14
  %usage.i.i.i = getelementptr inbounds i8, ptr %ref.tmp, i64 192
  call void @_ZN6icu_756number4impl10StringPropD1Ev(ptr noundef nonnull align 8 dereferenceable(16) %usage.i.i.i) #14
  %scale.i.i.i = getelementptr inbounds i8, ptr %ref.tmp, i64 168
  call void @_ZN6icu_756number5ScaleD1Ev(ptr noundef nonnull align 8 dereferenceable(20) %scale.i.i.i) #14
  %symbols.i.i.i = getelementptr inbounds i8, ptr %ref.tmp, i64 136
  call void @_ZN6icu_756number4impl14SymbolsWrapperD1Ev(ptr noundef nonnull align 8 dereferenceable(16) %symbols.i.i.i) #14
  %perUnit.i.i.i = getelementptr inbounds i8, ptr %ref.tmp, i64 40
  call void @_ZN6icu_7511MeasureUnitD1Ev(ptr noundef nonnull align 8 dereferenceable(19) %perUnit.i.i.i) #14
  %unit.i.i.i = getelementptr inbounds i8, ptr %ref.tmp, i64 16
  call void @_ZN6icu_7511MeasureUnitD1Ev(ptr noundef nonnull align 8 dereferenceable(19) %unit.i.i.i) #14
  ret void

lpad:                                             ; preds = %entry
  %0 = landingpad { ptr, i32 }
          cleanup
  call void @_ZN6icu_756number26UnlocalizedNumberFormatterD2Ev(ptr noundef nonnull align 8 dereferenceable(473) %ref.tmp) #14
  resume { ptr, i32 } %0
}